(dp1
S'rangeid'
p2
I124
sS'prevwidth'
p3
I238
sS'range_interval'
p4
(dp5
I58
I01
ssS'interval'
p6
I00
sS'range'
p7
(dp8
I32
(lp9
I242
aI156
asI40
(lp10
I392
aI412
asI124
(lp11
I238
asI43
(lp12
I411
aI187
aI431
aI181
aI372
aI662
aI388
aI553
aI449
aI532
aI511
aI556
aI505
aI553
aI564
asI12
(lp13
I0
asI58
(lp14
I190
aI190
asI95
(lp15
I577
asI92
(lp16
I369
asI61
(lp17
I431
asI63
(lp18
I324
assS'prevcid'
p19
I124
s.